; ModuleID = 'source-C-CXX/24/529.cpp'
source_filename = "source-C-CXX/24/529.cpp"
target datalayout = "e-m:e-p270:32:32-p271:32:32-p272:64:64-i64:64-f80:128-n8:16:32:64-S128"
target triple = "x86_64-pc-linux-gnu"

%"class.std::ios_base::Init" = type { i8 }
%"class.std::basic_istream" = type { i32 (...)**, i64, %"class.std::basic_ios" }
%"class.std::basic_ios" = type { %"class.std::ios_base", %"class.std::basic_ostream"*, i8, i8, %"class.std::basic_streambuf"*, %"class.std::ctype"*, %"class.std::num_put"*, %"class.std::num_get"* }
%"class.std::ios_base" = type { i32 (...)**, i64, i64, i32, i32, i32, %"struct.std::ios_base::_Callback_list"*, %"struct.std::ios_base::_Words", [8 x %"struct.std::ios_base::_Words"], i32, %"struct.std::ios_base::_Words"*, %"class.std::locale" }
%"struct.std::ios_base::_Callback_list" = type { %"struct.std::ios_base::_Callback_list"*, void (i32, %"class.std::ios_base"*, i32)*, i32, i32 }
%"struct.std::ios_base::_Words" = type { i8*, i64 }
%"class.std::locale" = type { %"class.std::locale::_Impl"* }
%"class.std::locale::_Impl" = type { i32, %"class.std::locale::facet"**, i64, %"class.std::locale::facet"**, i8** }
%"class.std::locale::facet" = type <{ i32 (...)**, i32, [4 x i8] }>
%"class.std::basic_ostream" = type { i32 (...)**, %"class.std::basic_ios" }
%"class.std::basic_streambuf" = type { i32 (...)**, i8*, i8*, i8*, i8*, i8*, i8*, %"class.std::locale" }
%"class.std::ctype" = type <{ %"class.std::locale::facet.base", [4 x i8], %struct.__locale_struct*, i8, [7 x i8], i32*, i32*, i16*, i8, [256 x i8], [256 x i8], i8, [6 x i8] }>
%"class.std::locale::facet.base" = type <{ i32 (...)**, i32 }>
%struct.__locale_struct = type { [13 x %struct.__locale_data*], i16*, i32*, i32*, [13 x i8*] }
%struct.__locale_data = type opaque
%"class.std::num_put" = type { %"class.std::locale::facet.base", [4 x i8] }
%"class.std::num_get" = type { %"class.std::locale::facet.base", [4 x i8] }

@_ZStL8__ioinit = internal global %"class.std::ios_base::Init" zeroinitializer, align 1
@__dso_handle = external hidden global i8
@a = dso_local local_unnamed_addr global [100000 x i32] zeroinitializer, align 16
@b = dso_local local_unnamed_addr global [1000000 x i32] zeroinitializer, align 16
@_ZSt3cin = external global %"class.std::basic_istream", align 8
@_ZSt4cout = external global %"class.std::basic_ostream", align 8
@llvm.global_ctors = appending global [1 x { i32, void ()*, i8* }] [{ i32, void ()*, i8* } { i32 65535, void ()* @_GLOBAL__sub_I_529.cpp, i8* null }]

declare void @_ZNSt8ios_base4InitC1Ev(%"class.std::ios_base::Init"* nonnull align 1 dereferenceable(1)) unnamed_addr #0

; Function Attrs: nounwind
declare void @_ZNSt8ios_base4InitD1Ev(%"class.std::ios_base::Init"* nonnull align 1 dereferenceable(1)) unnamed_addr #1

; Function Attrs: nofree nounwind
declare i32 @__cxa_atexit(void (i8*)*, i8*, i8*) local_unnamed_addr #2

; Function Attrs: mustprogress norecurse sspstrong uwtable
define dso_local i32 @main() local_unnamed_addr #3 {
  %1 = alloca i32, align 4
  %2 = bitcast i32* %1 to i8*
  call void @llvm.lifetime.start.p0i8(i64 4, i8* nonnull %2) #7
  %3 = call nonnull align 8 dereferenceable(16) %"class.std::basic_istream"* @_ZNSirsERi(%"class.std::basic_istream"* nonnull align 8 dereferenceable(16) @_ZSt3cin, i32* nonnull align 4 dereferenceable(4) %1)
  call void @llvm.memset.p0i8.i64(i8* noundef nonnull align 16 dereferenceable(40000) bitcast ([100000 x i32]* @a to i8*), i8 0, i64 40000, i1 false)
  call void @llvm.memset.p0i8.i64(i8* noundef nonnull align 16 dereferenceable(40000) bitcast ([1000000 x i32]* @b to i8*), i8 0, i64 40000, i1 false)
  store i32 1, i32* getelementptr inbounds ([100000 x i32], [100000 x i32]* @a, i64 0, i64 0), align 16, !tbaa !5
  %4 = load i32, i32* %1, align 4, !tbaa !5
  %5 = icmp sgt i32 %4, 0
  br i1 %5, label %6, label %33

6:                                                ; preds = %0, %30
  %7 = phi i32 [ %31, %30 ], [ 0, %0 ]
  br label %8

8:                                                ; preds = %27, %6
  %9 = phi i32 [ 0, %6 ], [ %29, %27 ]
  %10 = phi i64 [ 0, %6 ], [ %25, %27 ]
  %11 = getelementptr inbounds [100000 x i32], [100000 x i32]* @a, i64 0, i64 %10
  %12 = load i32, i32* %11, align 4, !tbaa !5
  %13 = shl nsw i32 %12, 1
  %14 = add nsw i32 %13, %9
  store i32 %14, i32* %11, align 4, !tbaa !5
  %15 = icmp sgt i32 %14, 9
  br i1 %15, label %18, label %16

16:                                               ; preds = %8
  %17 = add nuw nsw i64 %10, 1
  br label %24

18:                                               ; preds = %8
  %19 = add nsw i32 %14, -10
  store i32 %19, i32* %11, align 4, !tbaa !5
  %20 = add nuw nsw i64 %10, 1
  %21 = getelementptr inbounds [1000000 x i32], [1000000 x i32]* @b, i64 0, i64 %20
  %22 = load i32, i32* %21, align 4, !tbaa !5
  %23 = add nsw i32 %22, 1
  store i32 %23, i32* %21, align 4, !tbaa !5
  br label %24

24:                                               ; preds = %16, %18
  %25 = phi i64 [ %17, %16 ], [ %20, %18 ]
  %26 = icmp eq i64 %25, 100000
  br i1 %26, label %30, label %27, !llvm.loop !9

27:                                               ; preds = %24
  %28 = getelementptr inbounds [1000000 x i32], [1000000 x i32]* @b, i64 0, i64 %25
  %29 = load i32, i32* %28, align 4, !tbaa !5
  br label %8

30:                                               ; preds = %24
  call void @llvm.memset.p0i8.i64(i8* noundef nonnull align 16 dereferenceable(40000) bitcast ([1000000 x i32]* @b to i8*), i8 0, i64 40000, i1 false)
  %31 = add nuw nsw i32 %7, 1
  %32 = icmp eq i32 %31, %4
  br i1 %32, label %33, label %6, !llvm.loop !11

33:                                               ; preds = %30, %0
  br label %34

34:                                               ; preds = %33, %34
  %35 = phi i64 [ %39, %34 ], [ 100000, %33 ]
  %36 = getelementptr inbounds [100000 x i32], [100000 x i32]* @a, i64 0, i64 %35
  %37 = load i32, i32* %36, align 4, !tbaa !5
  %38 = icmp eq i32 %37, 0
  %39 = add i64 %35, -1
  br i1 %38, label %34, label %40, !llvm.loop !12

40:                                               ; preds = %34
  %41 = trunc i64 %35 to i32
  %42 = icmp sgt i32 %41, -1
  br i1 %42, label %43, label %52

43:                                               ; preds = %40
  %44 = and i64 %35, 4294967295
  br label %45

45:                                               ; preds = %43, %45
  %46 = phi i64 [ %44, %43 ], [ %51, %45 ]
  %47 = getelementptr inbounds [100000 x i32], [100000 x i32]* @a, i64 0, i64 %46
  %48 = load i32, i32* %47, align 4, !tbaa !5
  %49 = call nonnull align 8 dereferenceable(8) %"class.std::basic_ostream"* @_ZNSolsEi(%"class.std::basic_ostream"* nonnull align 8 dereferenceable(8) @_ZSt4cout, i32 %48)
  %50 = icmp sgt i64 %46, 0
  %51 = add nsw i64 %46, -1
  br i1 %50, label %45, label %52, !llvm.loop !13

52:                                               ; preds = %45, %40
  call void @llvm.lifetime.end.p0i8(i64 4, i8* nonnull %2) #7
  ret i32 0
}

; Function Attrs: argmemonly mustprogress nofree nosync nounwind willreturn
declare void @llvm.lifetime.start.p0i8(i64 immarg, i8* nocapture) #4

declare nonnull align 8 dereferenceable(16) %"class.std::basic_istream"* @_ZNSirsERi(%"class.std::basic_istream"* nonnull align 8 dereferenceable(16), i32* nonnull align 4 dereferenceable(4)) local_unnamed_addr #0

declare nonnull align 8 dereferenceable(8) %"class.std::basic_ostream"* @_ZNSolsEi(%"class.std::basic_ostream"* nonnull align 8 dereferenceable(8), i32) local_unnamed_addr #0

; Function Attrs: argmemonly mustprogress nofree nosync nounwind willreturn
declare void @llvm.lifetime.end.p0i8(i64 immarg, i8* nocapture) #4

; Function Attrs: sspstrong uwtable
define internal void @_GLOBAL__sub_I_529.cpp() #5 section ".text.startup" {
  tail call void @_ZNSt8ios_base4InitC1Ev(%"class.std::ios_base::Init"* nonnull align 1 dereferenceable(1) @_ZStL8__ioinit)
  %1 = tail call i32 @__cxa_atexit(void (i8*)* bitcast (void (%"class.std::ios_base::Init"*)* @_ZNSt8ios_base4InitD1Ev to void (i8*)*), i8* getelementptr inbounds (%"class.std::ios_base::Init", %"class.std::ios_base::Init"* @_ZStL8__ioinit, i64 0, i32 0), i8* nonnull @__dso_handle) #7
  ret void
}

; Function Attrs: argmemonly nofree nounwind willreturn writeonly
declare void @llvm.memset.p0i8.i64(i8* nocapture writeonly, i8, i64, i1 immarg) #6


!llvm.module.flags = !{!0, !1, !2, !3}
!llvm.ident = !{!4}

!0 = !{i32 1, !"wchar_size", i32 4}
!1 = !{i32 7, !"PIC Level", i32 2}
!2 = !{i32 7, !"PIE Level", i32 2}
!3 = !{i32 7, !"uwtable", i32 1}
!4 = !{!"clang version 13.0.0"}
!5 = !{!6, !6, i64 0}
!6 = !{!"int", !7, i64 0}
!7 = !{!"omnipotent char", !8, i64 0}
!8 = !{!"Simple C++ TBAA"}
!9 = distinct !{!9, !10}
!10 = !{!"llvm.loop.mustprogress"}
!11 = distinct !{!11, !10}
!12 = distinct !{!12, !10}
!13 = distinct !{!13, !10}
